; Function Attrs: mustprogress uwtable
define internal void @"_ZNK7doctest6detail12ContextScopeIZL19DOCTEST_ANON_FUNC_2vE3$_2E9stringifyEPSo"(ptr nonnull readnone align 8 captures(none) %0, ptr noundef %1) unnamed_addr #3 align 2 personality ptr @__gxx_personality_v0 {
  %3 = alloca %"struct.doctest::detail::MessageBuilder", align 8
  call void @llvm.lifetime.start.p0(i64 56, ptr nonnull %3) #28
  call void @_ZN7doctest6detail14MessageBuilderC1EPKciNS_10assertType4EnumE(ptr noundef nonnull align 8 dereferenceable(49) %3, ptr noundef nonnull @.str.2, i32 noundef 77, i32 noundef 1)
  %4 = getelementptr inbounds nuw i8, ptr %3, i64 40
  store ptr %1, ptr %4, align 8, !tbaa !259
  %5 = invoke noundef nonnull align 8 dereferenceable(49) ptr @_ZN7doctest6detail14MessageBuildercmIA23_cEERS1_RKT_(ptr noundef nonnull align 8 dereferenceable(49) %3, ptr noundef nonnull align 1 dereferenceable(23) @.str.183)
          to label %"_ZZL19DOCTEST_ANON_FUNC_2vENK3$_2clEPSo.exit" unwind label %6

6:                                                ; preds = %2
  %7 = landingpad { ptr, i32 }
          cleanup
  call void @_ZN7doctest6detail14MessageBuilderD1Ev(ptr noundef nonnull align 8 dereferenceable(49) %3) #28
  call void @llvm.lifetime.end.p0(i64 56, ptr nonnull %3) #28
  resume { ptr, i32 } %7

"_ZZL19DOCTEST_ANON_FUNC_2vENK3$_2clEPSo.exit":   ; preds = %2
  call void @_ZN7doctest6detail14MessageBuilderD1Ev(ptr noundef nonnull align 8 dereferenceable(49) %3) #28
  call void @llvm.lifetime.end.p0(i64 56, ptr nonnull %3) #28
  ret void
}